; Function Attrs: nounwind uwtable
define dso_local void @ustr_deinit(ptr noundef %0) local_unnamed_addr #1 {
  %.not = icmp eq ptr %0, null
  br i1 %.not, label %4, label %2

2:                                                ; preds = %1
  %3 = load ptr, ptr %0, align 8, !tbaa !8
  tail call void @uprv_free_77(ptr noundef %3) #10
  tail call void @llvm.memset.p0.i64(ptr noundef nonnull align 8 dereferenceable(16) %0, i8 0, i64 16, i1 false)
  br label %4

4:                                                ; preds = %2, %1
  ret void
}